target datalayout = "e-m:e-p270:32:32-p271:32:32-p272:64:64-i64:64-i128:128-f80:128-n8:16:32:64-S128"
target triple = "x86_64-unknown-linux-gnu"

%"class.facebook::velox::common::Tokenizer" = type { %"class.std::__cxx11::basic_string", %"class.std::shared_ptr", i32, i32, i8, %"class.std::unique_ptr" }
%"class.std::__cxx11::basic_string" = type { %"struct.std::__cxx11::basic_string<char>::_Alloc_hider", i64, %union.anon }
%"struct.std::__cxx11::basic_string<char>::_Alloc_hider" = type { ptr }
%union.anon = type { i64, [8 x i8] }
%"class.std::shared_ptr" = type { %"class.std::__shared_ptr" }
%"class.std::__shared_ptr" = type { ptr, %"class.std::__shared_count" }
%"class.std::__shared_count" = type { ptr }
%"class.std::unique_ptr" = type { %"struct.std::__uniq_ptr_data" }
%"struct.std::__uniq_ptr_data" = type { %"class.std::__uniq_ptr_impl" }
%"class.std::__uniq_ptr_impl" = type { %"class.std::tuple" }
%"class.std::tuple" = type { %"struct.std::_Tuple_impl" }
%"struct.std::_Tuple_impl" = type { %"struct.std::_Head_base.1" }
%"struct.std::_Head_base.1" = type { ptr }

; Function Attrs: mustprogress nounwind uwtable
define noundef signext i8 @_ZN8facebook5velox6common9Tokenizer13peekCharacterEv(ptr noundef nonnull align 8 dereferenceable(72) %this) #2 align 2 {
entry:
  %this.addr = alloca ptr, align 8
  store ptr %this, ptr %this.addr, align 8
  %this1 = load ptr, ptr %this.addr, align 8
  %path_ = getelementptr inbounds %"class.facebook::velox::common::Tokenizer", ptr %this1, i32 0, i32 0
  %index_ = getelementptr inbounds %"class.facebook::velox::common::Tokenizer", ptr %this1, i32 0, i32 2
  %0 = load i32, ptr %index_, align 8
  %conv = sext i32 %0 to i64
  %call = call noundef nonnull align 1 dereferenceable(1) ptr @_ZNKSt7__cxx1112basic_stringIcSt11char_traitsIcESaIcEEixEm(ptr noundef nonnull align 8 dereferenceable(32) %path_, i64 noundef %conv) #13
  %1 = load i8, ptr %call, align 1
  ret i8 %1
}

; Function Attrs: mustprogress nounwind uwtable
define noundef zeroext i1 @_ZN8facebook5velox6common9Tokenizer16hasNextCharacterEv(ptr noundef nonnull align 8 dereferenceable(72) %this) #2 align 2 {
entry:
  %this.addr = alloca ptr, align 8
  store ptr %this, ptr %this.addr, align 8
  %this1 = load ptr, ptr %this.addr, align 8
  %index_ = getelementptr inbounds %"class.facebook::velox::common::Tokenizer", ptr %this1, i32 0, i32 2
  %0 = load i32, ptr %index_, align 8
  %conv = sext i32 %0 to i64
  %path_ = getelementptr inbounds %"class.facebook::velox::common::Tokenizer", ptr %this1, i32 0, i32 0
  %call = call noundef i64 @_ZNKSt7__cxx1112basic_stringIcSt11char_traitsIcESaIcEE6lengthEv(ptr noundef nonnull align 8 dereferenceable(32) %path_) #13
  %cmp = icmp ult i64 %conv, %call
  ret i1 %cmp
}

; Function Attrs: mustprogress nounwind uwtable
define void @_ZN8facebook5velox6common9Tokenizer19invalidSubfieldPathEv(ptr noundef nonnull align 8 dereferenceable(72) %this) #2 align 2 {
entry:
  %this.addr = alloca ptr, align 8
  store ptr %this, ptr %this.addr, align 8
  call void @llvm.trap()
  ret void
}

; Function Attrs: mustprogress uwtable
define noundef zeroext i1 @_ZN8facebook5velox6common9Tokenizer8tryMatchEc(ptr noundef nonnull align 8 dereferenceable(72) %this, i8 noundef signext %expected) #0 align 2 {
entry:
  %retval = alloca i1, align 1
  %this.addr = alloca ptr, align 8
  %expected.addr = alloca i8, align 1
  store ptr %this, ptr %this.addr, align 8
  store i8 %expected, ptr %expected.addr, align 1
  %this1 = load ptr, ptr %this.addr, align 8
  %call = call noundef zeroext i1 @_ZN8facebook5velox6common9Tokenizer16hasNextCharacterEv(ptr noundef nonnull align 8 dereferenceable(72) %this1)
  br i1 %call, label %lor.lhs.false, label %if.then

lor.lhs.false:                                    ; preds = %entry
  %call2 = call noundef signext i8 @_ZN8facebook5velox6common9Tokenizer13peekCharacterEv(ptr noundef nonnull align 8 dereferenceable(72) %this1)
  %conv = sext i8 %call2 to i32
  %0 = load i8, ptr %expected.addr, align 1
  %conv3 = sext i8 %0 to i32
  %cmp = icmp ne i32 %conv, %conv3
  br i1 %cmp, label %if.then, label %if.end

if.then:                                          ; preds = %lor.lhs.false, %entry
  store i1 false, ptr %retval, align 1
  br label %return

if.end:                                           ; preds = %lor.lhs.false
  %index_ = getelementptr inbounds %"class.facebook::velox::common::Tokenizer", ptr %this1, i32 0, i32 2
  %1 = load i32, ptr %index_, align 8
  %inc = add nsw i32 %1, 1
  store i32 %inc, ptr %index_, align 8
  store i1 true, ptr %retval, align 1
  br label %return

return:                                           ; preds = %if.end, %if.then
  %2 = load i1, ptr %retval, align 1
  ret i1 %2
}

; Function Attrs: mustprogress uwtable
define void @_ZN8facebook5velox6common9Tokenizer5matchEc(ptr noundef nonnull align 8 dereferenceable(72) %this, i8 noundef signext %expected) #0 align 2 {
entry:
  %this.addr = alloca ptr, align 8
  %expected.addr = alloca i8, align 1
  store ptr %this, ptr %this.addr, align 8
  store i8 %expected, ptr %expected.addr, align 1
  %this1 = load ptr, ptr %this.addr, align 8
  %0 = load i8, ptr %expected.addr, align 1
  %call = call noundef zeroext i1 @_ZN8facebook5velox6common9Tokenizer8tryMatchEc(ptr noundef nonnull align 8 dereferenceable(72) %this1, i8 noundef signext %0)
  br i1 %call, label %if.end, label %if.then

if.then:                                          ; preds = %entry
  call void @_ZN8facebook5velox6common9Tokenizer19invalidSubfieldPathEv(ptr noundef nonnull align 8 dereferenceable(72) %this1)
  br label %if.end

if.end:                                           ; preds = %if.then, %entry
  ret void
}