; Function Attrs: mustprogress nounwind uwtable
define void @_ZN8facebook5velox6common9Tokenizer5matchEc(ptr noundef nonnull align 8 dereferenceable(72) %this, i8 noundef signext %expected) local_unnamed_addr #3 align 2 {
entry:
  %index_.i.i = getelementptr inbounds i8, ptr %this, i64 48
  %0 = load i32, ptr %index_.i.i, align 8
  %conv.i.i = sext i32 %0 to i64
  %call.i.i = tail call noundef i64 @_ZNKSt7__cxx1112basic_stringIcSt11char_traitsIcESaIcEE6lengthEv(ptr noundef nonnull align 8 dereferenceable(32) %this) #20
  %cmp.i.i = icmp ugt i64 %call.i.i, %conv.i.i
  br i1 %cmp.i.i, label %lor.lhs.false.i, label %if.then

lor.lhs.false.i:                                  ; preds = %entry
  %1 = load i32, ptr %index_.i.i, align 8
  %conv.i2.i = sext i32 %1 to i64
  %call.i3.i = tail call noundef nonnull align 1 dereferenceable(1) ptr @_ZNKSt7__cxx1112basic_stringIcSt11char_traitsIcESaIcEEixEm(ptr noundef nonnull align 8 dereferenceable(32) %this, i64 noundef %conv.i2.i) #20
  %2 = load i8, ptr %call.i3.i, align 1
  %cmp.not.i = icmp eq i8 %2, %expected
  br i1 %cmp.not.i, label %_ZN8facebook5velox6common9Tokenizer8tryMatchEc.exit, label %if.then

_ZN8facebook5velox6common9Tokenizer8tryMatchEc.exit: ; preds = %lor.lhs.false.i
  %3 = load i32, ptr %index_.i.i, align 8
  %inc.i = add nsw i32 %3, 1
  store i32 %inc.i, ptr %index_.i.i, align 8
  ret void

if.then:                                          ; preds = %lor.lhs.false.i, %entry
  tail call void @llvm.trap()
  unreachable
}